; ModuleID = '39/823.c'
source_filename = "39/823.c"
target datalayout = "e-m:e-p270:32:32-p271:32:32-p272:64:64-i64:64-f80:128-n8:16:32:64-S128"
target triple = "x86_64-pc-linux-gnu"

%struct.student = type { [100 x i8], i32, i32, [1 x i8], [1 x i8], i32, i32 }

@.str = private unnamed_addr constant [3 x i8] c"%d\00", align 1
@.str.1 = private unnamed_addr constant [3 x i8] c"%s\00", align 1
@.str.2 = private unnamed_addr constant [11 x i8] c"%d%d%s%s%d\00", align 1
@.str.3 = private unnamed_addr constant [4 x i8] c"%s\0A\00", align 1
@.str.4 = private unnamed_addr constant [6 x i8] c"%d\0A%d\00", align 1

; Function Attrs: noinline nounwind uwtable
define dso_local i32 @main() #0 {
  %1 = alloca i32, align 4
  %2 = alloca [1000 x %struct.student], align 16
  %3 = alloca i32, align 4
  %4 = alloca i32, align 4
  %5 = alloca i32, align 4
  %6 = alloca i32, align 4
  %7 = alloca i32, align 4
  store i32 0, i32* %1, align 4
  %8 = call i32 (i8*, ...) @__isoc99_scanf(i8* getelementptr inbounds ([3 x i8], [3 x i8]* @.str, i64 0, i64 0), i32* %3)
  store i32 0, i32* %4, align 4
  br label %9

9:                                                ; preds = %149, %0
  %10 = load i32, i32* %4, align 4
  %11 = load i32, i32* %3, align 4
  %12 = icmp slt i32 %10, %11
  br i1 %12, label %13, label %152

13:                                               ; preds = %9
  %14 = load i32, i32* %4, align 4
  %15 = sext i32 %14 to i64
  %16 = getelementptr inbounds [1000 x %struct.student], [1000 x %struct.student]* %2, i64 0, i64 %15
  %17 = getelementptr inbounds %struct.student, %struct.student* %16, i32 0, i32 6
  store i32 0, i32* %17, align 4
  %18 = load i32, i32* %4, align 4
  %19 = sext i32 %18 to i64
  %20 = getelementptr inbounds [1000 x %struct.student], [1000 x %struct.student]* %2, i64 0, i64 %19
  %21 = getelementptr inbounds %struct.student, %struct.student* %20, i32 0, i32 0
  %22 = getelementptr inbounds [100 x i8], [100 x i8]* %21, i64 0, i64 0
  %23 = call i32 (i8*, ...) @__isoc99_scanf(i8* getelementptr inbounds ([3 x i8], [3 x i8]* @.str.1, i64 0, i64 0), i8* %22)
  %24 = load i32, i32* %4, align 4
  %25 = sext i32 %24 to i64
  %26 = getelementptr inbounds [1000 x %struct.student], [1000 x %struct.student]* %2, i64 0, i64 %25
  %27 = getelementptr inbounds %struct.student, %struct.student* %26, i32 0, i32 1
  %28 = load i32, i32* %4, align 4
  %29 = sext i32 %28 to i64
  %30 = getelementptr inbounds [1000 x %struct.student], [1000 x %struct.student]* %2, i64 0, i64 %29
  %31 = getelementptr inbounds %struct.student, %struct.student* %30, i32 0, i32 2
  %32 = load i32, i32* %4, align 4
  %33 = sext i32 %32 to i64
  %34 = getelementptr inbounds [1000 x %struct.student], [1000 x %struct.student]* %2, i64 0, i64 %33
  %35 = getelementptr inbounds %struct.student, %struct.student* %34, i32 0, i32 3
  %36 = getelementptr inbounds [1 x i8], [1 x i8]* %35, i64 0, i64 0
  %37 = load i32, i32* %4, align 4
  %38 = sext i32 %37 to i64
  %39 = getelementptr inbounds [1000 x %struct.student], [1000 x %struct.student]* %2, i64 0, i64 %38
  %40 = getelementptr inbounds %struct.student, %struct.student* %39, i32 0, i32 4
  %41 = getelementptr inbounds [1 x i8], [1 x i8]* %40, i64 0, i64 0
  %42 = load i32, i32* %4, align 4
  %43 = sext i32 %42 to i64
  %44 = getelementptr inbounds [1000 x %struct.student], [1000 x %struct.student]* %2, i64 0, i64 %43
  %45 = getelementptr inbounds %struct.student, %struct.student* %44, i32 0, i32 5
  %46 = call i32 (i8*, ...) @__isoc99_scanf(i8* getelementptr inbounds ([11 x i8], [11 x i8]* @.str.2, i64 0, i64 0), i32* %27, i32* %31, i8* %36, i8* %41, i32* %45)
  %47 = load i32, i32* %4, align 4
  %48 = sext i32 %47 to i64
  %49 = getelementptr inbounds [1000 x %struct.student], [1000 x %struct.student]* %2, i64 0, i64 %48
  %50 = getelementptr inbounds %struct.student, %struct.student* %49, i32 0, i32 1
  %51 = load i32, i32* %50, align 4
  %52 = icmp sgt i32 %51, 80
  br i1 %52, label %53, label %67

53:                                               ; preds = %13
  %54 = load i32, i32* %4, align 4
  %55 = sext i32 %54 to i64
  %56 = getelementptr inbounds [1000 x %struct.student], [1000 x %struct.student]* %2, i64 0, i64 %55
  %57 = getelementptr inbounds %struct.student, %struct.student* %56, i32 0, i32 5
  %58 = load i32, i32* %57, align 8
  %59 = icmp sgt i32 %58, 0
  br i1 %59, label %60, label %67

60:                                               ; preds = %53
  %61 = load i32, i32* %4, align 4
  %62 = sext i32 %61 to i64
  %63 = getelementptr inbounds [1000 x %struct.student], [1000 x %struct.student]* %2, i64 0, i64 %62
  %64 = getelementptr inbounds %struct.student, %struct.student* %63, i32 0, i32 6
  %65 = load i32, i32* %64, align 4
  %66 = add nsw i32 %65, 8000
  store i32 %66, i32* %64, align 4
  br label %67

67:                                               ; preds = %60, %53, %13
  %68 = load i32, i32* %4, align 4
  %69 = sext i32 %68 to i64
  %70 = getelementptr inbounds [1000 x %struct.student], [1000 x %struct.student]* %2, i64 0, i64 %69
  %71 = getelementptr inbounds %struct.student, %struct.student* %70, i32 0, i32 1
  %72 = load i32, i32* %71, align 4
  %73 = icmp sgt i32 %72, 85
  br i1 %73, label %74, label %88

74:                                               ; preds = %67
  %75 = load i32, i32* %4, align 4
  %76 = sext i32 %75 to i64
  %77 = getelementptr inbounds [1000 x %struct.student], [1000 x %struct.student]* %2, i64 0, i64 %76
  %78 = getelementptr inbounds %struct.student, %struct.student* %77, i32 0, i32 2
  %79 = load i32, i32* %78, align 8
  %80 = icmp sgt i32 %79, 80
  br i1 %80, label %81, label %88

81:                                               ; preds = %74
  %82 = load i32, i32* %4, align 4
  %83 = sext i32 %82 to i64
  %84 = getelementptr inbounds [1000 x %struct.student], [1000 x %struct.student]* %2, i64 0, i64 %83
  %85 = getelementptr inbounds %struct.student, %struct.student* %84, i32 0, i32 6
  %86 = load i32, i32* %85, align 4
  %87 = add nsw i32 %86, 4000
  store i32 %87, i32* %85, align 4
  br label %88

88:                                               ; preds = %81, %74, %67
  %89 = load i32, i32* %4, align 4
  %90 = sext i32 %89 to i64
  %91 = getelementptr inbounds [1000 x %struct.student], [1000 x %struct.student]* %2, i64 0, i64 %90
  %92 = getelementptr inbounds %struct.student, %struct.student* %91, i32 0, i32 1
  %93 = load i32, i32* %92, align 4
  %94 = icmp sgt i32 %93, 90
  br i1 %94, label %95, label %102

95:                                               ; preds = %88
  %96 = load i32, i32* %4, align 4
  %97 = sext i32 %96 to i64
  %98 = getelementptr inbounds [1000 x %struct.student], [1000 x %struct.student]* %2, i64 0, i64 %97
  %99 = getelementptr inbounds %struct.student, %struct.student* %98, i32 0, i32 6
  %100 = load i32, i32* %99, align 4
  %101 = add nsw i32 %100, 2000
  store i32 %101, i32* %99, align 4
  br label %102

102:                                              ; preds = %95, %88
  %103 = load i32, i32* %4, align 4
  %104 = sext i32 %103 to i64
  %105 = getelementptr inbounds [1000 x %struct.student], [1000 x %struct.student]* %2, i64 0, i64 %104
  %106 = getelementptr inbounds %struct.student, %struct.student* %105, i32 0, i32 1
  %107 = load i32, i32* %106, align 4
  %108 = icmp sgt i32 %107, 85
  br i1 %108, label %109, label %125

109:                                              ; preds = %102
  %110 = load i32, i32* %4, align 4
  %111 = sext i32 %110 to i64
  %112 = getelementptr inbounds [1000 x %struct.student], [1000 x %struct.student]* %2, i64 0, i64 %111
  %113 = getelementptr inbounds %struct.student, %struct.student* %112, i32 0, i32 4
  %114 = getelementptr inbounds [1 x i8], [1 x i8]* %113, i64 0, i64 0
  %115 = load i8, i8* %114, align 1
  %116 = sext i8 %115 to i32
  %117 = icmp eq i32 %116, 89
  br i1 %117, label %118, label %125

118:                                              ; preds = %109
  %119 = load i32, i32* %4, align 4
  %120 = sext i32 %119 to i64
  %121 = getelementptr inbounds [1000 x %struct.student], [1000 x %struct.student]* %2, i64 0, i64 %120
  %122 = getelementptr inbounds %struct.student, %struct.student* %121, i32 0, i32 6
  %123 = load i32, i32* %122, align 4
  %124 = add nsw i32 %123, 1000
  store i32 %124, i32* %122, align 4
  br label %125

125:                                              ; preds = %118, %109, %102
  %126 = load i32, i32* %4, align 4
  %127 = sext i32 %126 to i64
  %128 = getelementptr inbounds [1000 x %struct.student], [1000 x %struct.student]* %2, i64 0, i64 %127
  %129 = getelementptr inbounds %struct.student, %struct.student* %128, i32 0, i32 2
  %130 = load i32, i32* %129, align 8
  %131 = icmp sgt i32 %130, 80
  br i1 %131, label %132, label %148

132:                                              ; preds = %125
  %133 = load i32, i32* %4, align 4
  %134 = sext i32 %133 to i64
  %135 = getelementptr inbounds [1000 x %struct.student], [1000 x %struct.student]* %2, i64 0, i64 %134
  %136 = getelementptr inbounds %struct.student, %struct.student* %135, i32 0, i32 3
  %137 = getelementptr inbounds [1 x i8], [1 x i8]* %136, i64 0, i64 0
  %138 = load i8, i8* %137, align 4
  %139 = sext i8 %138 to i32
  %140 = icmp eq i32 %139, 89
  br i1 %140, label %141, label %148

141:                                              ; preds = %132
  %142 = load i32, i32* %4, align 4
  %143 = sext i32 %142 to i64
  %144 = getelementptr inbounds [1000 x %struct.student], [1000 x %struct.student]* %2, i64 0, i64 %143
  %145 = getelementptr inbounds %struct.student, %struct.student* %144, i32 0, i32 6
  %146 = load i32, i32* %145, align 4
  %147 = add nsw i32 %146, 850
  store i32 %147, i32* %145, align 4
  br label %148

148:                                              ; preds = %141, %132, %125
  br label %149

149:                                              ; preds = %148
  %150 = load i32, i32* %4, align 4
  %151 = add nsw i32 %150, 1
  store i32 %151, i32* %4, align 4
  br label %9

152:                                              ; preds = %9
  store i32 0, i32* %5, align 4
  store i32 0, i32* %7, align 4
  store i32 0, i32* %4, align 4
  br label %153

153:                                              ; preds = %173, %152
  %154 = load i32, i32* %4, align 4
  %155 = load i32, i32* %3, align 4
  %156 = icmp slt i32 %154, %155
  br i1 %156, label %157, label %176

157:                                              ; preds = %153
  %158 = load i32, i32* %4, align 4
  %159 = sext i32 %158 to i64
  %160 = getelementptr inbounds [1000 x %struct.student], [1000 x %struct.student]* %2, i64 0, i64 %159
  %161 = getelementptr inbounds %struct.student, %struct.student* %160, i32 0, i32 6
  %162 = load i32, i32* %161, align 4
  %163 = load i32, i32* %5, align 4
  %164 = icmp sgt i32 %162, %163
  br i1 %164, label %165, label %172

165:                                              ; preds = %157
  %166 = load i32, i32* %4, align 4
  %167 = sext i32 %166 to i64
  %168 = getelementptr inbounds [1000 x %struct.student], [1000 x %struct.student]* %2, i64 0, i64 %167
  %169 = getelementptr inbounds %struct.student, %struct.student* %168, i32 0, i32 6
  %170 = load i32, i32* %169, align 4
  store i32 %170, i32* %5, align 4
  %171 = load i32, i32* %4, align 4
  store i32 %171, i32* %6, align 4
  br label %172

172:                                              ; preds = %165, %157
  br label %173

173:                                              ; preds = %172
  %174 = load i32, i32* %4, align 4
  %175 = add nsw i32 %174, 1
  store i32 %175, i32* %4, align 4
  br label %153

176:                                              ; preds = %153
  store i32 0, i32* %4, align 4
  br label %177

177:                                              ; preds = %189, %176
  %178 = load i32, i32* %4, align 4
  %179 = load i32, i32* %3, align 4
  %180 = icmp slt i32 %178, %179
  br i1 %180, label %181, label %192

181:                                              ; preds = %177
  %182 = load i32, i32* %4, align 4
  %183 = sext i32 %182 to i64
  %184 = getelementptr inbounds [1000 x %struct.student], [1000 x %struct.student]* %2, i64 0, i64 %183
  %185 = getelementptr inbounds %struct.student, %struct.student* %184, i32 0, i32 6
  %186 = load i32, i32* %185, align 4
  %187 = load i32, i32* %7, align 4
  %188 = add nsw i32 %187, %186
  store i32 %188, i32* %7, align 4
  br label %189

189:                                              ; preds = %181
  %190 = load i32, i32* %4, align 4
  %191 = add nsw i32 %190, 1
  store i32 %191, i32* %4, align 4
  br label %177

192:                                              ; preds = %177
  %193 = load i32, i32* %6, align 4
  %194 = sext i32 %193 to i64
  %195 = getelementptr inbounds [1000 x %struct.student], [1000 x %struct.student]* %2, i64 0, i64 %194
  %196 = getelementptr inbounds %struct.student, %struct.student* %195, i32 0, i32 0
  %197 = getelementptr inbounds [100 x i8], [100 x i8]* %196, i64 0, i64 0
  %198 = call i32 (i8*, ...) @printf(i8* getelementptr inbounds ([4 x i8], [4 x i8]* @.str.3, i64 0, i64 0), i8* %197)
  %199 = load i32, i32* %5, align 4
  %200 = load i32, i32* %7, align 4
  %201 = call i32 (i8*, ...) @printf(i8* getelementptr inbounds ([6 x i8], [6 x i8]* @.str.4, i64 0, i64 0), i32 %199, i32 %200)
  ret i32 0
}

declare dso_local i32 @__isoc99_scanf(i8*, ...) #1

declare dso_local i32 @printf(i8*, ...) #1


!llvm.module.flags = !{!0}
!llvm.ident = !{!1}

!0 = !{i32 1, !"wchar_size", i32 4}
!1 = !{!"clang version 10.0.0-4ubuntu1 "}
